; Function Attrs: mustprogress nounwind uwtable
define internal fastcc noundef ptr @_ZN4llvm14ImutAVLFactoryINS_16ImutKeyValueInfoIPKN5clang4ento9MemRegionEN12_GLOBAL__N_116NullabilityStateEEEE15remove_internalERKS6_PNS_11ImutAVLTreeIS9_EE(ptr noundef nonnull align 8 dereferenceable(80) %0, ptr noundef nonnull align 8 dereferenceable(8) %1, ptr noundef readonly %2) unnamed_addr #0 align 2 {
  %4 = alloca ptr, align 8
  %.not.i = icmp eq ptr %2, null
  br i1 %.not.i, label %common.ret28, label %5

5:                                                ; preds = %3
  %6 = getelementptr inbounds nuw i8, ptr %2, i64 48
  %.val = load ptr, ptr %1, align 8
  %.val19 = load ptr, ptr %6, align 8
  %7 = icmp eq ptr %.val, %.val19
  br i1 %7, label %8, label %17

8:                                                ; preds = %5
  %9 = getelementptr i8, ptr %2, i64 8
  %.val24 = load ptr, ptr %9, align 8
  %10 = getelementptr i8, ptr %2, i64 16
  %.val27 = load ptr, ptr %10, align 8
  call void @llvm.lifetime.start.p0(i64 8, ptr nonnull %4)
  %.not.i.i = icmp eq ptr %.val24, null
  br i1 %.not.i.i, label %_ZN4llvm14ImutAVLFactoryINS_16ImutKeyValueInfoIPKN5clang4ento9MemRegionEN12_GLOBAL__N_116NullabilityStateEEEE12combineTreesEPNS_11ImutAVLTreeIS9_EESD_.exit, label %11

11:                                               ; preds = %8
  %.not.i9.i = icmp eq ptr %.val27, null
  br i1 %.not.i9.i, label %_ZN4llvm14ImutAVLFactoryINS_16ImutKeyValueInfoIPKN5clang4ento9MemRegionEN12_GLOBAL__N_116NullabilityStateEEEE12combineTreesEPNS_11ImutAVLTreeIS9_EESD_.exit, label %12

12:                                               ; preds = %11
  %13 = call fastcc noundef ptr @_ZN4llvm14ImutAVLFactoryINS_16ImutKeyValueInfoIPKN5clang4ento9MemRegionEN12_GLOBAL__N_116NullabilityStateEEEE16removeMinBindingEPNS_11ImutAVLTreeIS9_EERSD_(ptr noundef nonnull align 8 dereferenceable(80) %0, ptr noundef nonnull %.val27, ptr noundef nonnull align 8 dereferenceable(8) %4)
  %14 = load ptr, ptr %4, align 8
  %15 = getelementptr inbounds nuw i8, ptr %14, i64 48
  %16 = tail call fastcc noundef ptr @_ZN4llvm14ImutAVLFactoryINS_16ImutKeyValueInfoIPKN5clang4ento9MemRegionEN12_GLOBAL__N_116NullabilityStateEEEE11balanceTreeEPNS_11ImutAVLTreeIS9_EERKSt4pairIS6_S8_ESD_(ptr noundef nonnull align 8 dereferenceable(80) %0, ptr noundef nonnull %.val24, ptr noundef nonnull align 8 dereferenceable(24) %15, ptr noundef %13)
  br label %_ZN4llvm14ImutAVLFactoryINS_16ImutKeyValueInfoIPKN5clang4ento9MemRegionEN12_GLOBAL__N_116NullabilityStateEEEE12combineTreesEPNS_11ImutAVLTreeIS9_EESD_.exit

_ZN4llvm14ImutAVLFactoryINS_16ImutKeyValueInfoIPKN5clang4ento9MemRegionEN12_GLOBAL__N_116NullabilityStateEEEE12combineTreesEPNS_11ImutAVLTreeIS9_EESD_.exit: ; preds = %8, %11, %12
  %.0.i = phi ptr [ %16, %12 ], [ %.val27, %8 ], [ %.val24, %11 ]
  call void @llvm.lifetime.end.p0(i64 8, ptr nonnull %4)
  br label %common.ret28

17:                                               ; preds = %5
  %18 = icmp ult ptr %.val, %.val19
  %19 = getelementptr i8, ptr %2, i64 8
  %.val23 = load ptr, ptr %19, align 8
  br i1 %18, label %20, label %24

common.ret28:                                     ; preds = %3, %_ZN4llvm14ImutAVLFactoryINS_16ImutKeyValueInfoIPKN5clang4ento9MemRegionEN12_GLOBAL__N_116NullabilityStateEEEE12combineTreesEPNS_11ImutAVLTreeIS9_EESD_.exit, %24, %20
  %common.ret28.op = phi ptr [ %23, %20 ], [ %27, %24 ], [ %.0.i, %_ZN4llvm14ImutAVLFactoryINS_16ImutKeyValueInfoIPKN5clang4ento9MemRegionEN12_GLOBAL__N_116NullabilityStateEEEE12combineTreesEPNS_11ImutAVLTreeIS9_EESD_.exit ], [ null, %3 ]
  ret ptr %common.ret28.op

20:                                               ; preds = %17
  %21 = tail call fastcc noundef ptr @_ZN4llvm14ImutAVLFactoryINS_16ImutKeyValueInfoIPKN5clang4ento9MemRegionEN12_GLOBAL__N_116NullabilityStateEEEE15remove_internalERKS6_PNS_11ImutAVLTreeIS9_EE(ptr noundef nonnull align 8 dereferenceable(80) %0, ptr noundef nonnull align 8 dereferenceable(8) %1, ptr noundef %.val23)
  %22 = getelementptr i8, ptr %2, i64 16
  %.val26 = load ptr, ptr %22, align 8
  %23 = tail call fastcc noundef ptr @_ZN4llvm14ImutAVLFactoryINS_16ImutKeyValueInfoIPKN5clang4ento9MemRegionEN12_GLOBAL__N_116NullabilityStateEEEE11balanceTreeEPNS_11ImutAVLTreeIS9_EERKSt4pairIS6_S8_ESD_(ptr noundef nonnull align 8 dereferenceable(80) %0, ptr noundef %21, ptr noundef nonnull align 8 dereferenceable(24) %6, ptr noundef %.val26)
  br label %common.ret28

24:                                               ; preds = %17
  %25 = getelementptr i8, ptr %2, i64 16
  %.val25 = load ptr, ptr %25, align 8
  %26 = tail call fastcc noundef ptr @_ZN4llvm14ImutAVLFactoryINS_16ImutKeyValueInfoIPKN5clang4ento9MemRegionEN12_GLOBAL__N_116NullabilityStateEEEE15remove_internalERKS6_PNS_11ImutAVLTreeIS9_EE(ptr noundef nonnull align 8 dereferenceable(80) %0, ptr noundef nonnull align 8 dereferenceable(8) %1, ptr noundef %.val25)
  %27 = tail call fastcc noundef ptr @_ZN4llvm14ImutAVLFactoryINS_16ImutKeyValueInfoIPKN5clang4ento9MemRegionEN12_GLOBAL__N_116NullabilityStateEEEE11balanceTreeEPNS_11ImutAVLTreeIS9_EERKSt4pairIS6_S8_ESD_(ptr noundef nonnull align 8 dereferenceable(80) %0, ptr noundef %.val23, ptr noundef nonnull align 8 dereferenceable(24) %6, ptr noundef %26)
  br label %common.ret28
}